target datalayout = "e-m:e-p270:32:32-p271:32:32-p272:64:64-i64:64-i128:128-f80:128-n8:16:32:64-S128"
target triple = "x86_64-pc-linux-gnu"

%"class.std::_Function_base" = type { %"union.std::_Any_data", ptr }
%"union.std::_Any_data" = type { %"union.std::_Nocopy_types" }
%"union.std::_Nocopy_types" = type { { i64, i64 } }
%"class.gmx::NoseHooverChainsElement" = type { %"class.gmx::ISimulatorElement", %"class.gmx::ArrayRef.95", %"class.std::function.447", i32, i32, double, i32, i32, i32, i64, ptr, ptr, ptr }
%"class.gmx::ISimulatorElement" = type { ptr }
%"class.gmx::ArrayRef.95" = type { %"struct.gmx::ArrayRefIter.96", %"struct.gmx::ArrayRefIter.96" }
%"struct.gmx::ArrayRefIter.96" = type { ptr }
%"class.std::function.447" = type { %"class.std::_Function_base", ptr }

; Function Attrs: mustprogress nounwind uwtable
define linkonce_odr void @_ZNSt14_Function_baseC2Ev(ptr noundef nonnull align 8 dereferenceable(24) %0) unnamed_addr #0 comdat align 2 {
  %2 = alloca ptr, align 8
  store ptr %0, ptr %2, align 8, !tbaa !668
  %3 = load ptr, ptr %2, align 8
  %4 = getelementptr inbounds nuw %"class.std::_Function_base", ptr %3, i32 0, i32 0
  store ptr null, ptr %4, align 8, !tbaa !158
  %5 = getelementptr inbounds nuw %"class.std::_Function_base", ptr %3, i32 0, i32 1
  store ptr null, ptr %5, align 8, !tbaa !339
  ret void
}

; Function Attrs: mustprogress nounwind uwtable
define linkonce_odr void @_ZN3gmx12ArrayRefIterIfEC2EPf(ptr noundef nonnull align 8 dereferenceable(8) %0, ptr noundef %1) unnamed_addr #0 comdat align 2 {
  %3 = alloca ptr, align 8
  %4 = alloca ptr, align 8
  store ptr %0, ptr %3, align 8, !tbaa !659
  store ptr %1, ptr %4, align 8, !tbaa !87
  %5 = load ptr, ptr %3, align 8
  %6 = getelementptr inbounds nuw %"struct.gmx::ArrayRefIter.96", ptr %5, i32 0, i32 0
  %7 = load ptr, ptr %4, align 8, !tbaa !87
  store ptr %7, ptr %6, align 8, !tbaa !661
  ret void
}

; Function Attrs: mustprogress nounwind uwtable
define linkonce_odr void @_ZN3gmx17ISimulatorElementD2Ev(ptr noundef nonnull align 8 dereferenceable(8) %0) unnamed_addr #0 comdat align 2 {
  %2 = alloca ptr, align 8
  store ptr %0, ptr %2, align 8, !tbaa !1047
  ret void
}

; Function Attrs: mustprogress nounwind uwtable
define linkonce_odr void @_ZNSt8functionIFvlEEC2Ev(ptr noundef nonnull align 8 dereferenceable(32) %0) unnamed_addr #0 comdat align 2 {
  %2 = alloca ptr, align 8
  store ptr %0, ptr %2, align 8, !tbaa !1049
  %3 = load ptr, ptr %2, align 8
  %4 = getelementptr inbounds i8, ptr %3, i64 0
  call void @llvm.memset.p0.i64(ptr align 8 %4, i8 0, i64 24, i1 false)
  call void @_ZNSt14_Function_baseC2Ev(ptr noundef nonnull align 8 dereferenceable(24) %3) #21
  %5 = getelementptr inbounds nuw %"class.std::function.447", ptr %3, i32 0, i32 1
  store ptr null, ptr %5, align 8, !tbaa !1051
  ret void
}

; Function Attrs: mustprogress nounwind uwtable
define linkonce_odr void @_ZN3gmx8ArrayRefIfEC2Ev(ptr noundef nonnull align 8 dereferenceable(16) %0) unnamed_addr #0 comdat align 2 {
  %2 = alloca ptr, align 8
  store ptr %0, ptr %2, align 8, !tbaa !331
  %3 = load ptr, ptr %2, align 8
  %4 = getelementptr inbounds nuw %"class.gmx::ArrayRef.95", ptr %3, i32 0, i32 0
  call void @_ZN3gmx12ArrayRefIterIfEC2EPf(ptr noundef nonnull align 8 dereferenceable(8) %4, ptr noundef null) #21
  %5 = getelementptr inbounds nuw %"class.gmx::ArrayRef.95", ptr %3, i32 0, i32 1
  call void @_ZN3gmx12ArrayRefIterIfEC2EPf(ptr noundef nonnull align 8 dereferenceable(8) %5, ptr noundef null) #21
  ret void
}

; Function Attrs: inlinehint mustprogress nounwind uwtable
define linkonce_odr void @_ZN3gmx17ISimulatorElementC2Ev(ptr noundef nonnull align 8 dereferenceable(8) %0) unnamed_addr #2 comdat align 2 {
  %2 = alloca ptr, align 8
  store ptr %0, ptr %2, align 8, !tbaa !1047
  %3 = load ptr, ptr %2, align 8
  store ptr getelementptr inbounds inrange(-16, 40) ({ [7 x ptr] }, ptr @_ZTVN3gmx17ISimulatorElementE, i32 0, i32 0, i32 2), ptr %3, align 8, !tbaa !107
  ret void
}

; Function Attrs: mustprogress uwtable
define void @_ZN3gmx23NoseHooverChainsElementC2EiiNS_8NhcUsageENS_13UseFullStepKEEdNS_18ScheduleOnInitStepElPNS_10EnergyDataEPNS_20NoseHooverChainsDataEPNS_8MttkDataE(ptr noundef nonnull align 8 dereferenceable(120) %0, i32 noundef %1, i32 noundef %2, i32 noundef %3, i32 noundef %4, double noundef %5, i32 noundef %6, i64 noundef %7, ptr noundef %8, ptr noundef %9, ptr noundef %10) unnamed_addr #1 align 2 personality ptr @__gxx_personality_v0 {
  %12 = alloca ptr, align 8
  %13 = alloca i32, align 4
  %14 = alloca i32, align 4
  %15 = alloca i32, align 4
  %16 = alloca i32, align 4
  %17 = alloca double, align 8
  %18 = alloca i32, align 4
  %19 = alloca i64, align 8
  %20 = alloca ptr, align 8
  %21 = alloca ptr, align 8
  %22 = alloca ptr, align 8
  %23 = alloca ptr, align 8
  %24 = alloca i32, align 4
  store ptr %0, ptr %12, align 8, !tbaa !37
  store i32 %1, ptr %13, align 4, !tbaa !64
  store i32 %2, ptr %14, align 4, !tbaa !64
  store i32 %3, ptr %15, align 4, !tbaa !67
  store i32 %4, ptr %16, align 4, !tbaa !1044
  store double %5, ptr %17, align 8, !tbaa !41
  store i32 %6, ptr %18, align 4, !tbaa !1045
  store i64 %7, ptr %19, align 8, !tbaa !39
  store ptr %8, ptr %20, align 8, !tbaa !189
  store ptr %9, ptr %21, align 8, !tbaa !4
  store ptr %10, ptr %22, align 8, !tbaa !1046
  %25 = load ptr, ptr %12, align 8
  call void @_ZN3gmx17ISimulatorElementC2Ev(ptr noundef nonnull align 8 dereferenceable(8) %25) #21
  store ptr getelementptr inbounds inrange(-16, 40) ({ [7 x ptr] }, ptr @_ZTVN3gmx23NoseHooverChainsElementE, i32 0, i32 0, i32 2), ptr %25, align 8, !tbaa !107
  %26 = getelementptr inbounds nuw %"class.gmx::NoseHooverChainsElement", ptr %25, i32 0, i32 1
  invoke void @_ZN3gmx8ArrayRefIfEC2Ev(ptr noundef nonnull align 8 dereferenceable(16) %26)
          to label %27 unwind label %49

27:                                               ; preds = %11
  %28 = getelementptr inbounds nuw %"class.gmx::NoseHooverChainsElement", ptr %25, i32 0, i32 2
  call void @_ZNSt8functionIFvlEEC2Ev(ptr noundef nonnull align 8 dereferenceable(32) %28) #21
  %29 = getelementptr inbounds nuw %"class.gmx::NoseHooverChainsElement", ptr %25, i32 0, i32 3
  %30 = load i32, ptr %13, align 4, !tbaa !64
  store i32 %30, ptr %29, align 8, !tbaa !59
  %31 = getelementptr inbounds nuw %"class.gmx::NoseHooverChainsElement", ptr %25, i32 0, i32 4
  %32 = load i32, ptr %14, align 4, !tbaa !64
  store i32 %32, ptr %31, align 4, !tbaa !60
  %33 = getelementptr inbounds nuw %"class.gmx::NoseHooverChainsElement", ptr %25, i32 0, i32 5
  %34 = load double, ptr %17, align 8, !tbaa !41
  store double %34, ptr %33, align 8, !tbaa !994
  %35 = getelementptr inbounds nuw %"class.gmx::NoseHooverChainsElement", ptr %25, i32 0, i32 6
  %36 = load i32, ptr %15, align 4, !tbaa !67
  store i32 %36, ptr %35, align 8, !tbaa !63
  %37 = getelementptr inbounds nuw %"class.gmx::NoseHooverChainsElement", ptr %25, i32 0, i32 7
  %38 = load i32, ptr %16, align 4, !tbaa !1044
  store i32 %38, ptr %37, align 4, !tbaa !1002
  %39 = getelementptr inbounds nuw %"class.gmx::NoseHooverChainsElement", ptr %25, i32 0, i32 8
  %40 = load i32, ptr %18, align 4, !tbaa !1045
  store i32 %40, ptr %39, align 8, !tbaa !58
  %41 = getelementptr inbounds nuw %"class.gmx::NoseHooverChainsElement", ptr %25, i32 0, i32 9
  %42 = load i64, ptr %19, align 8, !tbaa !39
  store i64 %42, ptr %41, align 8, !tbaa !45
  %43 = getelementptr inbounds nuw %"class.gmx::NoseHooverChainsElement", ptr %25, i32 0, i32 10
  %44 = load ptr, ptr %20, align 8, !tbaa !189
  store ptr %44, ptr %43, align 8, !tbaa !991
  %45 = getelementptr inbounds nuw %"class.gmx::NoseHooverChainsElement", ptr %25, i32 0, i32 11
  %46 = load ptr, ptr %21, align 8, !tbaa !4
  store ptr %46, ptr %45, align 8, !tbaa !993
  %47 = getelementptr inbounds nuw %"class.gmx::NoseHooverChainsElement", ptr %25, i32 0, i32 12
  %48 = load ptr, ptr %22, align 8, !tbaa !1046
  store ptr %48, ptr %47, align 8, !tbaa !998
  ret void

49:                                               ; preds = %11
  %50 = landingpad { ptr, i32 }
          cleanup
  %51 = extractvalue { ptr, i32 } %50, 0
  store ptr %51, ptr %23, align 8
  %52 = extractvalue { ptr, i32 } %50, 1
  store i32 %52, ptr %24, align 4
  call void @_ZN3gmx17ISimulatorElementD2Ev(ptr noundef nonnull align 8 dereferenceable(8) %25) #21
  br label %53

53:                                               ; preds = %49
  %54 = load ptr, ptr %23, align 8
  %55 = load i32, ptr %24, align 4
  %56 = insertvalue { ptr, i32 } poison, ptr %54, 0
  %57 = insertvalue { ptr, i32 } %56, i32 %55, 1
  resume { ptr, i32 } %57
}