; Function Attrs: mustprogress nofree norecurse nosync nounwind willreturn memory(argmem: write) uwtable
define void @_ZN3gmx23NoseHooverChainsElementC2EiiNS_8NhcUsageENS_13UseFullStepKEEdNS_18ScheduleOnInitStepElPNS_10EnergyDataEPNS_20NoseHooverChainsDataEPNS_8MttkDataE(ptr noundef nonnull writeonly align 8 captures(none) dereferenceable(120) initializes((0, 84), (88, 120)) %0, i32 noundef %1, i32 noundef %2, i32 noundef %3, i32 noundef %4, double noundef %5, i32 noundef %6, i64 noundef %7, ptr noundef %8, ptr noundef %9, ptr noundef %10) unnamed_addr #25 align 2 personality ptr @__gxx_personality_v0 {
  store ptr getelementptr inbounds nuw inrange(-16, 40) (i8, ptr @_ZTVN3gmx23NoseHooverChainsElementE, i64 16), ptr %0, align 8, !tbaa !88
  %12 = getelementptr inbounds nuw i8, ptr %0, i64 8
  %13 = getelementptr inbounds nuw i8, ptr %0, i64 56
  tail call void @llvm.memset.p0.i64(ptr noundef nonnull align 8 dereferenceable(48) %12, i8 0, i64 48, i1 false)
  store i32 %1, ptr %13, align 8, !tbaa !69
  %14 = getelementptr inbounds nuw i8, ptr %0, i64 60
  store i32 %2, ptr %14, align 4, !tbaa !70
  %15 = getelementptr inbounds nuw i8, ptr %0, i64 64
  store double %5, ptr %15, align 8, !tbaa !476
  %16 = getelementptr inbounds nuw i8, ptr %0, i64 72
  store i32 %3, ptr %16, align 8, !tbaa !80
  %17 = getelementptr inbounds nuw i8, ptr %0, i64 76
  store i32 %4, ptr %17, align 4, !tbaa !485
  %18 = getelementptr inbounds nuw i8, ptr %0, i64 80
  store i32 %6, ptr %18, align 8, !tbaa !489
  %19 = getelementptr inbounds nuw i8, ptr %0, i64 88
  store i64 %7, ptr %19, align 8, !tbaa !55
  %20 = getelementptr inbounds nuw i8, ptr %0, i64 96
  store ptr %8, ptr %20, align 8, !tbaa !474
  %21 = getelementptr inbounds nuw i8, ptr %0, i64 104
  store ptr %9, ptr %21, align 8, !tbaa !475
  %22 = getelementptr inbounds nuw i8, ptr %0, i64 112
  store ptr %10, ptr %22, align 8, !tbaa !483
  ret void
}